; ModuleID = '12/184.c'
source_filename = "12/184.c"
target datalayout = "e-m:e-p270:32:32-p271:32:32-p272:64:64-i64:64-f80:128-n8:16:32:64-S128"
target triple = "x86_64-pc-linux-gnu"

@.str = private unnamed_addr constant [3 x i8] c"%d\00", align 1
@.str.1 = private unnamed_addr constant [4 x i8] c"%d\0A\00", align 1

; Function Attrs: noinline nounwind uwtable
define dso_local i32 @main() #0 {
  %1 = alloca i32, align 4
  %2 = alloca [100 x [20 x i32]], align 16
  %3 = alloca i32, align 4
  %4 = alloca i32, align 4
  %5 = alloca i32, align 4
  %6 = alloca [100 x i32], align 16
  store i32 0, i32* %1, align 4
  store i32 0, i32* %3, align 4
  store i32 0, i32* %4, align 4
  store i32 0, i32* %5, align 4
  br label %7

7:                                                ; preds = %43, %0
  store i32 0, i32* %4, align 4
  br label %8

8:                                                ; preds = %38, %7
  %9 = load i32, i32* %3, align 4
  %10 = sext i32 %9 to i64
  %11 = getelementptr inbounds [100 x [20 x i32]], [100 x [20 x i32]]* %2, i64 0, i64 %10
  %12 = load i32, i32* %4, align 4
  %13 = sext i32 %12 to i64
  %14 = getelementptr inbounds [20 x i32], [20 x i32]* %11, i64 0, i64 %13
  %15 = call i32 (i8*, ...) @__isoc99_scanf(i8* getelementptr inbounds ([3 x i8], [3 x i8]* @.str, i64 0, i64 0), i32* %14)
  %16 = load i32, i32* %4, align 4
  %17 = add nsw i32 %16, 1
  store i32 %17, i32* %4, align 4
  br label %18

18:                                               ; preds = %8
  %19 = load i32, i32* %3, align 4
  %20 = sext i32 %19 to i64
  %21 = getelementptr inbounds [100 x [20 x i32]], [100 x [20 x i32]]* %2, i64 0, i64 %20
  %22 = load i32, i32* %4, align 4
  %23 = sub nsw i32 %22, 1
  %24 = sext i32 %23 to i64
  %25 = getelementptr inbounds [20 x i32], [20 x i32]* %21, i64 0, i64 %24
  %26 = load i32, i32* %25, align 4
  %27 = icmp ne i32 %26, 0
  br i1 %27, label %28, label %38

28:                                               ; preds = %18
  %29 = load i32, i32* %3, align 4
  %30 = sext i32 %29 to i64
  %31 = getelementptr inbounds [100 x [20 x i32]], [100 x [20 x i32]]* %2, i64 0, i64 %30
  %32 = load i32, i32* %4, align 4
  %33 = sub nsw i32 %32, 1
  %34 = sext i32 %33 to i64
  %35 = getelementptr inbounds [20 x i32], [20 x i32]* %31, i64 0, i64 %34
  %36 = load i32, i32* %35, align 4
  %37 = icmp ne i32 %36, -1
  br label %38

38:                                               ; preds = %28, %18
  %39 = phi i1 [ false, %18 ], [ %37, %28 ]
  br i1 %39, label %8, label %40

40:                                               ; preds = %38
  %41 = load i32, i32* %3, align 4
  %42 = add nsw i32 %41, 1
  store i32 %42, i32* %3, align 4
  br label %43

43:                                               ; preds = %40
  %44 = load i32, i32* %3, align 4
  %45 = sub nsw i32 %44, 1
  %46 = sext i32 %45 to i64
  %47 = getelementptr inbounds [100 x [20 x i32]], [100 x [20 x i32]]* %2, i64 0, i64 %46
  %48 = getelementptr inbounds [20 x i32], [20 x i32]* %47, i64 0, i64 0
  %49 = load i32, i32* %48, align 16
  %50 = icmp ne i32 %49, -1
  br i1 %50, label %7, label %51

51:                                               ; preds = %43
  store i32 0, i32* %3, align 4
  br label %52

52:                                               ; preds = %133, %51
  %53 = load i32, i32* %3, align 4
  %54 = sext i32 %53 to i64
  %55 = getelementptr inbounds [100 x [20 x i32]], [100 x [20 x i32]]* %2, i64 0, i64 %54
  %56 = getelementptr inbounds [20 x i32], [20 x i32]* %55, i64 0, i64 0
  %57 = load i32, i32* %56, align 16
  %58 = icmp ne i32 %57, -1
  br i1 %58, label %59, label %136

59:                                               ; preds = %52
  %60 = load i32, i32* %3, align 4
  %61 = sext i32 %60 to i64
  %62 = getelementptr inbounds [100 x i32], [100 x i32]* %6, i64 0, i64 %61
  store i32 0, i32* %62, align 4
  store i32 0, i32* %5, align 4
  br label %63

63:                                               ; preds = %130, %59
  %64 = load i32, i32* %3, align 4
  %65 = sext i32 %64 to i64
  %66 = getelementptr inbounds [100 x [20 x i32]], [100 x [20 x i32]]* %2, i64 0, i64 %65
  %67 = load i32, i32* %5, align 4
  %68 = sext i32 %67 to i64
  %69 = getelementptr inbounds [20 x i32], [20 x i32]* %66, i64 0, i64 %68
  %70 = load i32, i32* %69, align 4
  %71 = icmp ne i32 %70, 0
  br i1 %71, label %72, label %81

72:                                               ; preds = %63
  %73 = load i32, i32* %3, align 4
  %74 = sext i32 %73 to i64
  %75 = getelementptr inbounds [100 x [20 x i32]], [100 x [20 x i32]]* %2, i64 0, i64 %74
  %76 = load i32, i32* %5, align 4
  %77 = sext i32 %76 to i64
  %78 = getelementptr inbounds [20 x i32], [20 x i32]* %75, i64 0, i64 %77
  %79 = load i32, i32* %78, align 4
  %80 = icmp ne i32 %79, -1
  br label %81

81:                                               ; preds = %72, %63
  %82 = phi i1 [ false, %63 ], [ %80, %72 ]
  br i1 %82, label %83, label %133

83:                                               ; preds = %81
  store i32 0, i32* %4, align 4
  br label %84

84:                                               ; preds = %127, %83
  %85 = load i32, i32* %3, align 4
  %86 = sext i32 %85 to i64
  %87 = getelementptr inbounds [100 x [20 x i32]], [100 x [20 x i32]]* %2, i64 0, i64 %86
  %88 = load i32, i32* %4, align 4
  %89 = sext i32 %88 to i64
  %90 = getelementptr inbounds [20 x i32], [20 x i32]* %87, i64 0, i64 %89
  %91 = load i32, i32* %90, align 4
  %92 = icmp ne i32 %91, 0
  br i1 %92, label %93, label %102

93:                                               ; preds = %84
  %94 = load i32, i32* %3, align 4
  %95 = sext i32 %94 to i64
  %96 = getelementptr inbounds [100 x [20 x i32]], [100 x [20 x i32]]* %2, i64 0, i64 %95
  %97 = load i32, i32* %4, align 4
  %98 = sext i32 %97 to i64
  %99 = getelementptr inbounds [20 x i32], [20 x i32]* %96, i64 0, i64 %98
  %100 = load i32, i32* %99, align 4
  %101 = icmp ne i32 %100, -1
  br label %102

102:                                              ; preds = %93, %84
  %103 = phi i1 [ false, %84 ], [ %101, %93 ]
  br i1 %103, label %104, label %130

104:                                              ; preds = %102
  %105 = load i32, i32* %3, align 4
  %106 = sext i32 %105 to i64
  %107 = getelementptr inbounds [100 x [20 x i32]], [100 x [20 x i32]]* %2, i64 0, i64 %106
  %108 = load i32, i32* %5, align 4
  %109 = sext i32 %108 to i64
  %110 = getelementptr inbounds [20 x i32], [20 x i32]* %107, i64 0, i64 %109
  %111 = load i32, i32* %110, align 4
  %112 = load i32, i32* %3, align 4
  %113 = sext i32 %112 to i64
  %114 = getelementptr inbounds [100 x [20 x i32]], [100 x [20 x i32]]* %2, i64 0, i64 %113
  %115 = load i32, i32* %4, align 4
  %116 = sext i32 %115 to i64
  %117 = getelementptr inbounds [20 x i32], [20 x i32]* %114, i64 0, i64 %116
  %118 = load i32, i32* %117, align 4
  %119 = mul nsw i32 2, %118
  %120 = icmp eq i32 %111, %119
  br i1 %120, label %121, label %127

121:                                              ; preds = %104
  %122 = load i32, i32* %3, align 4
  %123 = sext i32 %122 to i64
  %124 = getelementptr inbounds [100 x i32], [100 x i32]* %6, i64 0, i64 %123
  %125 = load i32, i32* %124, align 4
  %126 = add nsw i32 %125, 1
  store i32 %126, i32* %124, align 4
  br label %127

127:                                              ; preds = %121, %104
  %128 = load i32, i32* %4, align 4
  %129 = add nsw i32 %128, 1
  store i32 %129, i32* %4, align 4
  br label %84

130:                                              ; preds = %102
  %131 = load i32, i32* %5, align 4
  %132 = add nsw i32 %131, 1
  store i32 %132, i32* %5, align 4
  br label %63

133:                                              ; preds = %81
  %134 = load i32, i32* %3, align 4
  %135 = add nsw i32 %134, 1
  store i32 %135, i32* %3, align 4
  br label %52

136:                                              ; preds = %52
  store i32 0, i32* %3, align 4
  br label %137

137:                                              ; preds = %144, %136
  %138 = load i32, i32* %3, align 4
  %139 = sext i32 %138 to i64
  %140 = getelementptr inbounds [100 x [20 x i32]], [100 x [20 x i32]]* %2, i64 0, i64 %139
  %141 = getelementptr inbounds [20 x i32], [20 x i32]* %140, i64 0, i64 0
  %142 = load i32, i32* %141, align 16
  %143 = icmp ne i32 %142, -1
  br i1 %143, label %144, label %152

144:                                              ; preds = %137
  %145 = load i32, i32* %3, align 4
  %146 = sext i32 %145 to i64
  %147 = getelementptr inbounds [100 x i32], [100 x i32]* %6, i64 0, i64 %146
  %148 = load i32, i32* %147, align 4
  %149 = call i32 (i8*, ...) @printf(i8* getelementptr inbounds ([4 x i8], [4 x i8]* @.str.1, i64 0, i64 0), i32 %148)
  %150 = load i32, i32* %3, align 4
  %151 = add nsw i32 %150, 1
  store i32 %151, i32* %3, align 4
  br label %137

152:                                              ; preds = %137
  ret i32 1
}

declare dso_local i32 @__isoc99_scanf(i8*, ...) #1

declare dso_local i32 @printf(i8*, ...) #1


!llvm.module.flags = !{!0}
!llvm.ident = !{!1}

!0 = !{i32 1, !"wchar_size", i32 4}
!1 = !{!"clang version 10.0.0-4ubuntu1 "}
